target datalayout = "e-m:e-p270:32:32-p271:32:32-p272:64:64-i64:64-i128:128-f80:128-n8:16:32:64-S128"
target triple = "x86_64-pc-linux-gnu"

; Function Attrs: inlinehint mustprogress nounwind uwtable
define internal noundef signext i8 @_ZL9U_FAILURE10UErrorCode(i32 noundef %0) #2 {
  %2 = alloca i32, align 4
  store i32 %0, ptr %2, align 4, !tbaa !30
  %3 = load i32, ptr %2, align 4, !tbaa !30
  %4 = icmp sgt i32 %3, 0
  %5 = zext i1 %4 to i8
  ret i8 %5
}

; Function Attrs: mustprogress uwtable
define noundef i32 @_ZN6icu_779SpoofImpl7ScanHexEPKDsiiR10UErrorCode(ptr noundef %0, i32 noundef %1, i32 noundef %2, ptr noundef nonnull align 4 dereferenceable(4) %3) #1 align 2 {
  %5 = alloca i32, align 4
  %6 = alloca ptr, align 8
  %7 = alloca i32, align 4
  %8 = alloca i32, align 4
  %9 = alloca ptr, align 8
  %10 = alloca i32, align 4
  %11 = alloca i32, align 4
  %12 = alloca i32, align 4
  store ptr %0, ptr %6, align 8, !tbaa !69
  store i32 %1, ptr %7, align 4, !tbaa !48
  store i32 %2, ptr %8, align 4, !tbaa !48
  store ptr %3, ptr %9, align 8, !tbaa !10
  %13 = load ptr, ptr %9, align 8, !tbaa !10
  %14 = load i32, ptr %13, align 4, !tbaa !30
  %15 = call noundef signext i8 @_ZL9U_FAILURE10UErrorCode(i32 noundef %14)
  %16 = icmp ne i8 %15, 0
  br i1 %16, label %17, label %18

17:                                               ; preds = %4
  store i32 0, ptr %5, align 4
  br label %71

18:                                               ; preds = %4
  call void @llvm.lifetime.start.p0(i64 4, ptr %10) #15
  store i32 0, ptr %10, align 4, !tbaa !48
  call void @llvm.lifetime.start.p0(i64 4, ptr %11) #15
  %19 = load i32, ptr %7, align 4, !tbaa !48
  store i32 %19, ptr %11, align 4, !tbaa !48
  br label %20

20:                                               ; preds = %61, %18
  %21 = load i32, ptr %11, align 4, !tbaa !48
  %22 = load i32, ptr %8, align 4, !tbaa !48
  %23 = icmp slt i32 %21, %22
  br i1 %23, label %24, label %64

24:                                               ; preds = %20
  call void @llvm.lifetime.start.p0(i64 4, ptr %12) #15
  %25 = load ptr, ptr %6, align 8, !tbaa !69
  %26 = load i32, ptr %11, align 4, !tbaa !48
  %27 = sext i32 %26 to i64
  %28 = getelementptr inbounds i16, ptr %25, i64 %27
  %29 = load i16, ptr %28, align 2, !tbaa !70
  %30 = zext i16 %29 to i32
  %31 = sub nsw i32 %30, 48
  store i32 %31, ptr %12, align 4, !tbaa !48
  %32 = load i32, ptr %12, align 4, !tbaa !48
  %33 = icmp sgt i32 %32, 9
  br i1 %33, label %34, label %43

34:                                               ; preds = %24
  %35 = load ptr, ptr %6, align 8, !tbaa !69
  %36 = load i32, ptr %11, align 4, !tbaa !48
  %37 = sext i32 %36 to i64
  %38 = getelementptr inbounds i16, ptr %35, i64 %37
  %39 = load i16, ptr %38, align 2, !tbaa !70
  %40 = zext i16 %39 to i32
  %41 = sub nsw i32 %40, 65
  %42 = add nsw i32 10, %41
  store i32 %42, ptr %12, align 4, !tbaa !48
  br label %43

43:                                               ; preds = %34, %24
  %44 = load i32, ptr %12, align 4, !tbaa !48
  %45 = icmp sgt i32 %44, 15
  br i1 %45, label %46, label %55

46:                                               ; preds = %43
  %47 = load ptr, ptr %6, align 8, !tbaa !69
  %48 = load i32, ptr %11, align 4, !tbaa !48
  %49 = sext i32 %48 to i64
  %50 = getelementptr inbounds i16, ptr %47, i64 %49
  %51 = load i16, ptr %50, align 2, !tbaa !70
  %52 = zext i16 %51 to i32
  %53 = sub nsw i32 %52, 97
  %54 = add nsw i32 10, %53
  store i32 %54, ptr %12, align 4, !tbaa !48
  br label %55

55:                                               ; preds = %46, %43
  %56 = load i32, ptr %10, align 4, !tbaa !48
  %57 = shl i32 %56, 4
  store i32 %57, ptr %10, align 4, !tbaa !48
  %58 = load i32, ptr %12, align 4, !tbaa !48
  %59 = load i32, ptr %10, align 4, !tbaa !48
  %60 = add i32 %59, %58
  store i32 %60, ptr %10, align 4, !tbaa !48
  call void @llvm.lifetime.end.p0(i64 4, ptr %12) #15
  br label %61

61:                                               ; preds = %55
  %62 = load i32, ptr %11, align 4, !tbaa !48
  %63 = add nsw i32 %62, 1
  store i32 %63, ptr %11, align 4, !tbaa !48
  br label %20, !llvm.loop !72

64:                                               ; preds = %20
  %65 = load i32, ptr %10, align 4, !tbaa !48
  %66 = icmp ugt i32 %65, 1114111
  br i1 %66, label %67, label %69

67:                                               ; preds = %64
  %68 = load ptr, ptr %9, align 8, !tbaa !10
  store i32 9, ptr %68, align 4, !tbaa !30
  store i32 0, ptr %10, align 4, !tbaa !48
  br label %69

69:                                               ; preds = %67, %64
  %70 = load i32, ptr %10, align 4, !tbaa !48
  store i32 %70, ptr %5, align 4
  call void @llvm.lifetime.end.p0(i64 4, ptr %11) #15
  call void @llvm.lifetime.end.p0(i64 4, ptr %10) #15
  br label %71

71:                                               ; preds = %69, %17
  %72 = load i32, ptr %5, align 4
  ret i32 %72
}