; Function Attrs: mustprogress nofree norecurse nosync nounwind memory(argmem: readwrite) uwtable
define noundef range(i32 0, 1114112) i32 @_ZN6icu_779SpoofImpl7ScanHexEPKDsiiR10UErrorCode(ptr noundef readonly captures(none) %0, i32 noundef %1, i32 noundef %2, ptr noundef nonnull align 4 captures(none) dereferenceable(4) %3) local_unnamed_addr #12 align 2 {
  %5 = load i32, ptr %3, align 4, !tbaa !19
  %6 = icmp slt i32 %5, 1
  %7 = icmp slt i32 %1, %2
  %or.cond = and i1 %6, %7
  br i1 %or.cond, label %.lr.ph.preheader, label %._crit_edge.thread

.lr.ph.preheader:                                 ; preds = %4
  %8 = sext i32 %1 to i64
  %wide.trip.count = sext i32 %2 to i64
  br label %.lr.ph

.lr.ph:                                           ; preds = %.lr.ph.preheader, %.lr.ph
  %indvars.iv = phi i64 [ %8, %.lr.ph.preheader ], [ %indvars.iv.next, %.lr.ph ]
  %.02025 = phi i32 [ 0, %.lr.ph.preheader ], [ %16, %.lr.ph ]
  %9 = getelementptr inbounds i16, ptr %0, i64 %indvars.iv
  %10 = load i16, ptr %9, align 2, !tbaa !49
  %11 = zext i16 %10 to i32
  %12 = icmp ugt i16 %10, 57
  %spec.select.v = select i1 %12, i32 -55, i32 -48
  %spec.select = add nsw i32 %spec.select.v, %11
  %13 = icmp sgt i32 %spec.select, 15
  %14 = add nsw i32 %11, -87
  %spec.select24 = select i1 %13, i32 %14, i32 %spec.select
  %15 = shl i32 %.02025, 4
  %16 = add i32 %spec.select24, %15
  %indvars.iv.next = add nsw i64 %indvars.iv, 1
  %exitcond.not = icmp eq i64 %indvars.iv.next, %wide.trip.count
  br i1 %exitcond.not, label %._crit_edge, label %.lr.ph, !llvm.loop !60

._crit_edge:                                      ; preds = %.lr.ph
  %17 = icmp ugt i32 %16, 1114111
  br i1 %17, label %18, label %._crit_edge.thread

18:                                               ; preds = %._crit_edge
  store i32 9, ptr %3, align 4, !tbaa !19
  br label %._crit_edge.thread

._crit_edge.thread:                               ; preds = %._crit_edge, %18, %4
  %.022 = phi i32 [ 0, %4 ], [ 0, %18 ], [ %16, %._crit_edge ]
  ret i32 %.022
}